target datalayout = "e-m:e-p270:32:32-p271:32:32-p272:64:64-i64:64-i128:128-f80:128-n8:16:32:64-S128"
target triple = "x86_64-pc-linux-gnu"

%"class.sls::datatype_plugin" = type { %"class.sls::plugin.base", ptr, ptr, %class.obj_map, %class.obj_map.0, i8, %"class.datatype::util", %class.ref_vector, %class.ref_vector, %class.ref_vector, %class.ref, %"struct.sls::datatype_plugin::stats", [4 x i8], %class.obj_map.5, %class.obj_map.10 }
%"class.sls::plugin.base" = type <{ ptr, ptr, ptr, i32 }>
%class.obj_map = type { %class.core_hashtable }
%class.core_hashtable = type <{ ptr, i32, i32, i32, [4 x i8] }>
%class.obj_map.0 = type { %class.core_hashtable.1 }
%class.core_hashtable.1 = type <{ ptr, i32, i32, i32, [4 x i8] }>
%"class.datatype::util" = type { ptr, i32, ptr }
%class.ref_vector = type { %class.ref_vector_core }
%class.ref_vector_core = type { %class.ref_manager_wrapper, %class.ptr_vector }
%class.ref_manager_wrapper = type { ptr }
%class.ptr_vector = type { %class.vector }
%class.vector = type { ptr }
%class.ref = type { ptr }
%"struct.sls::datatype_plugin::stats" = type { i32 }
%class.obj_map.5 = type { %class.core_hashtable.6 }
%class.core_hashtable.6 = type <{ ptr, i32, i32, i32, [4 x i8] }>
%class.obj_map.10 = type { %class.core_hashtable.11 }
%class.core_hashtable.11 = type <{ ptr, i32, i32, i32, [4 x i8] }>
%class.obj_ref = type { ptr, ptr }
%class.app = type { %class.expr, ptr, i32, %struct.app_flags, [0 x ptr] }
%class.expr = type { %class.ast }
%class.ast = type { i32, i32, i32, i32 }
%struct.app_flags = type <{ i16, i8, i8 }>

; Function Attrs: inlinehint mustprogress nounwind uwtable
define linkonce_odr hidden noundef ptr @_Z6to_appP3ast(ptr noundef %0) #6 comdat {
  %2 = alloca ptr, align 8
  store ptr %0, ptr %2, align 8, !tbaa !91
  %3 = load ptr, ptr %2, align 8, !tbaa !91
  ret ptr %3
}

; Function Attrs: mustprogress nounwind uwtable
define linkonce_odr hidden noundef ptr @_ZNK7obj_refI4expr11ast_managerEcvPS0_Ev(ptr noundef nonnull align 8 dereferenceable(16) %0) #5 comdat align 2 {
  %2 = alloca ptr, align 8
  store ptr %0, ptr %2, align 8, !tbaa !137
  %3 = load ptr, ptr %2, align 8
  %4 = getelementptr inbounds nuw %class.obj_ref, ptr %3, i32 0, i32 0
  %5 = load ptr, ptr %4, align 8, !tbaa !139
  ret ptr %5
}

; Function Attrs: mustprogress nounwind uwtable
define linkonce_odr hidden noundef ptr @_ZNK3app8get_declEv(ptr noundef nonnull align 8 dereferenceable(32) %0) #5 comdat align 2 {
  %2 = alloca ptr, align 8
  store ptr %0, ptr %2, align 8, !tbaa !77
  %3 = load ptr, ptr %2, align 8
  %4 = getelementptr inbounds nuw %class.app, ptr %3, i32 0, i32 1
  %5 = load ptr, ptr %4, align 8, !tbaa !93
  ret ptr %5
}

; Function Attrs: mustprogress uwtable
define hidden void @_ZN3sls15datatype_plugin18repair_up_accessorEP3appP4exprS4_(ptr noundef nonnull align 8 dereferenceable(240) %0, ptr noundef %1, ptr noundef %2, ptr noundef %3) #4 align 2 personality ptr @__gxx_personality_v0 {
  %5 = alloca ptr, align 8
  %6 = alloca ptr, align 8
  %7 = alloca ptr, align 8
  %8 = alloca ptr, align 8
  %9 = alloca %class.obj_ref, align 8
  %10 = alloca ptr, align 8
  %11 = alloca ptr, align 8
  %12 = alloca i32, align 4
  %13 = alloca ptr, align 8
  store ptr %0, ptr %5, align 8, !tbaa !3
  store ptr %1, ptr %6, align 8, !tbaa !77
  store ptr %2, ptr %7, align 8, !tbaa !71
  store ptr %3, ptr %8, align 8, !tbaa !71
  %14 = load ptr, ptr %5, align 8
  call void @llvm.lifetime.start.p0(i64 16, ptr %9) #3
  %15 = load ptr, ptr %7, align 8, !tbaa !71
  call void @_ZN3sls15datatype_plugin5eval0EP4expr(ptr dead_on_unwind writable sret(%class.obj_ref) align 8 %9, ptr noundef nonnull align 8 dereferenceable(240) %14, ptr noundef %15)
  call void @llvm.lifetime.start.p0(i64 8, ptr %10) #3
  %16 = load ptr, ptr %6, align 8, !tbaa !77
  %17 = invoke noundef ptr @_ZNK3app8get_declEv(ptr noundef nonnull align 8 dereferenceable(32) %16)
          to label %18 unwind label %37

18:                                               ; preds = %4
  store ptr %17, ptr %10, align 8, !tbaa !89
  call void @llvm.lifetime.start.p0(i64 8, ptr %13) #3
  %19 = getelementptr inbounds nuw %"class.sls::datatype_plugin", ptr %14, i32 0, i32 6
  %20 = load ptr, ptr %10, align 8, !tbaa !89
  %21 = invoke noundef ptr @_ZN8datatype4util24get_accessor_constructorEP9func_decl(ptr noundef nonnull align 8 dereferenceable(24) %19, ptr noundef %20)
          to label %22 unwind label %41

22:                                               ; preds = %18
  store ptr %21, ptr %13, align 8, !tbaa !89
  %23 = invoke noundef ptr @_ZNK7obj_refI4expr11ast_managerEcvPS0_Ev(ptr noundef nonnull align 8 dereferenceable(16) %9)
          to label %24 unwind label %41

24:                                               ; preds = %22
  %25 = invoke noundef ptr @_Z6to_appP3ast(ptr noundef %23)
          to label %26 unwind label %41

26:                                               ; preds = %24
  %27 = invoke noundef ptr @_ZNK3app8get_declEv(ptr noundef nonnull align 8 dereferenceable(32) %25)
          to label %28 unwind label %41

28:                                               ; preds = %26
  %29 = load ptr, ptr %13, align 8, !tbaa !89
  %30 = icmp ne ptr %27, %29
  br i1 %30, label %31, label %45

31:                                               ; preds = %28
  %32 = load ptr, ptr %6, align 8, !tbaa !77
  %33 = invoke noundef ptr @_ZNK7obj_refI4expr11ast_managerEcvPS0_Ev(ptr noundef nonnull align 8 dereferenceable(16) %9)
          to label %34 unwind label %41

34:                                               ; preds = %31
  %35 = load ptr, ptr %8, align 8, !tbaa !71
  invoke void @_ZN3sls15datatype_plugin20update_eval_accessorEP3appP4exprS4_(ptr noundef nonnull align 8 dereferenceable(240) %14, ptr noundef %32, ptr noundef %33, ptr noundef %35)
          to label %36 unwind label %41

36:                                               ; preds = %34
  br label %45

37:                                               ; preds = %4
  %38 = landingpad { ptr, i32 }
          cleanup
  %39 = extractvalue { ptr, i32 } %38, 0
  store ptr %39, ptr %11, align 8
  %40 = extractvalue { ptr, i32 } %38, 1
  store i32 %40, ptr %12, align 4
  br label %49

41:                                               ; preds = %45, %34, %31, %26, %24, %22, %18
  %42 = landingpad { ptr, i32 }
          cleanup
  %43 = extractvalue { ptr, i32 } %42, 0
  store ptr %43, ptr %11, align 8
  %44 = extractvalue { ptr, i32 } %42, 1
  store i32 %44, ptr %12, align 4
  call void @llvm.lifetime.end.p0(i64 8, ptr %13) #3
  br label %49

45:                                               ; preds = %36, %28
  %46 = load ptr, ptr %6, align 8, !tbaa !77
  %47 = load ptr, ptr %8, align 8, !tbaa !71
  invoke void @_ZN3sls15datatype_plugin9set_eval0EP4exprS2_(ptr noundef nonnull align 8 dereferenceable(240) %14, ptr noundef %46, ptr noundef %47)
          to label %48 unwind label %41

48:                                               ; preds = %45
  call void @llvm.lifetime.end.p0(i64 8, ptr %13) #3
  call void @llvm.lifetime.end.p0(i64 8, ptr %10) #3
  call void @_ZN7obj_refI4expr11ast_managerED2Ev(ptr noundef nonnull align 8 dereferenceable(16) %9) #3
  call void @llvm.lifetime.end.p0(i64 16, ptr %9) #3
  ret void

49:                                               ; preds = %41, %37
  call void @llvm.lifetime.end.p0(i64 8, ptr %10) #3
  call void @_ZN7obj_refI4expr11ast_managerED2Ev(ptr noundef nonnull align 8 dereferenceable(16) %9) #3
  call void @llvm.lifetime.end.p0(i64 16, ptr %9) #3
  br label %50

50:                                               ; preds = %49
  %51 = load ptr, ptr %11, align 8
  %52 = load i32, ptr %12, align 4
  %53 = insertvalue { ptr, i32 } poison, ptr %51, 0
  %54 = insertvalue { ptr, i32 } %53, i32 %52, 1
  resume { ptr, i32 } %54
}