; Function Attrs: mustprogress uwtable
define hidden void @_ZN3sls15datatype_plugin18repair_up_accessorEP3appP4exprS4_(ptr noundef nonnull align 8 dereferenceable(240) %0, ptr noundef %1, ptr noundef nonnull %2, ptr noundef %3) local_unnamed_addr #3 align 2 personality ptr @__gxx_personality_v0 {
  %5 = alloca %class.obj_ref, align 8
  call void @llvm.lifetime.start.p0(i64 16, ptr nonnull %5) #21
  call void @_ZN3sls15datatype_plugin5eval0EP4expr(ptr dead_on_unwind nonnull writable sret(%class.obj_ref) align 8 %5, ptr noundef nonnull align 8 dereferenceable(240) %0, ptr noundef %2)
  %6 = getelementptr inbounds nuw i8, ptr %1, i64 16
  %7 = load ptr, ptr %6, align 8, !tbaa !120
  %8 = getelementptr inbounds nuw i8, ptr %0, i64 104
  %9 = invoke noundef ptr @_ZN8datatype4util24get_accessor_constructorEP9func_decl(ptr noundef nonnull align 8 dereferenceable(24) %8, ptr noundef %7)
          to label %10 unwind label %15

10:                                               ; preds = %4
  %11 = load ptr, ptr %5, align 8, !tbaa !141
  %12 = getelementptr inbounds nuw i8, ptr %11, i64 16
  %13 = load ptr, ptr %12, align 8, !tbaa !120
  %.not = icmp eq ptr %13, %9
  br i1 %.not, label %17, label %14

14:                                               ; preds = %10
  invoke void @_ZN3sls15datatype_plugin20update_eval_accessorEP3appP4exprS4_(ptr noundef nonnull align 8 dereferenceable(240) %0, ptr noundef nonnull %1, ptr noundef nonnull %11, ptr noundef %3)
          to label %17 unwind label %15

15:                                               ; preds = %17, %14, %4
  %16 = landingpad { ptr, i32 }
          cleanup
  call void @_ZN7obj_refI4expr11ast_managerED2Ev(ptr noundef nonnull align 8 dereferenceable(16) %5) #21
  call void @llvm.lifetime.end.p0(i64 16, ptr nonnull %5) #21
  resume { ptr, i32 } %16

17:                                               ; preds = %14, %10
  invoke void @_ZN3sls15datatype_plugin9set_eval0EP4exprS2_(ptr noundef nonnull align 8 dereferenceable(240) %0, ptr noundef nonnull %1, ptr noundef %3)
          to label %18 unwind label %15

18:                                               ; preds = %17
  %19 = load ptr, ptr %5, align 8, !tbaa !141
  %.not.i.i = icmp eq ptr %19, null
  br i1 %.not.i.i, label %_ZN7obj_refI4expr11ast_managerED2Ev.exit, label %20

20:                                               ; preds = %18
  %21 = getelementptr inbounds nuw i8, ptr %5, i64 8
  %22 = load ptr, ptr %21, align 8, !tbaa !143
  %23 = getelementptr inbounds nuw i8, ptr %19, i64 8
  %24 = load i32, ptr %23, align 4, !tbaa !88
  %25 = add i32 %24, -1
  store i32 %25, ptr %23, align 4, !tbaa !88
  %26 = icmp eq i32 %25, 0
  br i1 %26, label %27, label %_ZN7obj_refI4expr11ast_managerED2Ev.exit

27:                                               ; preds = %20
  invoke void @_ZN11ast_manager11delete_nodeEP3ast(ptr noundef nonnull align 8 dereferenceable(976) %22, ptr noundef nonnull %19)
          to label %_ZN7obj_refI4expr11ast_managerED2Ev.exit unwind label %28

28:                                               ; preds = %27
  %29 = landingpad { ptr, i32 }
          catch ptr null
  %30 = extractvalue { ptr, i32 } %29, 0
  call void @__clang_call_terminate(ptr %30) #22
  unreachable

_ZN7obj_refI4expr11ast_managerED2Ev.exit:         ; preds = %18, %20, %27
  call void @llvm.lifetime.end.p0(i64 16, ptr nonnull %5) #21
  ret void
}